(lp0
(dp1
Vdomain
p2
Vpassport.jd.com
p3
sVname
p4
Valc
p5
sVvalue
p6
VshytSQKXjNtKYB+bbJdrlw==
p7
sVpath
p8
V/
p9
sVhttpOnly
p10
I01
sVsecure
p11
I00
sa(dp12
Vdomain
p13
Vpassport.jd.com
p14
sVname
p15
Vqr_t
p16
sVvalue
p17
Vc
p18
sVpath
p19
g9
sVhttpOnly
p20
I01
sVsecure
p21
I00
sa(dp22
Vdomain
p23
V.jd.com
p24
sVsecure
p25
I00
sVvalue
p26
V1517397605324
p27
sVexpiry
p28
I1517399405
sVpath
p29
g9
sVhttpOnly
p30
I00
sVname
p31
V_jrdb
p32
sa(dp33
Vdomain
p34
Vpassport.jd.com
p35
sVname
p36
V_t
p37
sVvalue
p38
VuzFFNza8mTQS5Fe0s6h6qbp0i+DZED5StyBwJwdz/w4=
p39
sVpath
p40
g9
sVhttpOnly
p41
I00
sVsecure
p42
I00
sa(dp43
Vdomain
p44
V.jd.com
p45
sVsecure
p46
I00
sVvalue
p47
V122270672.15173976047891584018956.1517397605.1517397605.1517397605.1
p48
sVexpiry
p49
I1532949604
sVpath
p50
g9
sVhttpOnly
p51
I00
sVname
p52
V__jda
p53
sa(dp54
Vdomain
p55
V.jd.com
p56
sVsecure
p57
I00
sVvalue
p58
V122270672.1.15173976047891584018956|1.1517397605
p59
sVexpiry
p60
I1517399404
sVpath
p61
g9
sVhttpOnly
p62
I00
sVname
p63
V__jdb
p64
sa(dp65
Vdomain
p66
V.jd.com
p67
sVname
p68
V__jdc
p69
sVvalue
p70
V122270672
p71
sVpath
p72
g9
sVhttpOnly
p73
I00
sVsecure
p74
I00
sa(dp75
Vdomain
p76
V.jd.com
p77
sVname
p78
Vwlfstk_smdl
p79
sVvalue
p80
V5utlvxrmyjhbawqg3nvxzk50a4vy3jf9
p81
sVpath
p82
g9
sVhttpOnly
p83
I00
sVsecure
p84
I00
sa(dp85
Vdomain
p86
V.jd.com
p87
sVsecure
p88
I00
sVvalue
p89
V1
p90
sVexpiry
p91
I1532949605
sVpath
p92
g9
sVhttpOnly
p93
I00
sVname
p94
V_jrda
p95
sa(dp96
Vdomain
p97
V.jd.com
p98
sVsecure
p99
I00
sVvalue
p100
V122270672|direct|-|none|-|1517397604789
p101
sVexpiry
p102
I1518693604
sVpath
p103
g9
sVhttpOnly
p104
I00
sVname
p105
V__jdv
p106
sa(dp107
Vdomain
p108
V.jd.com
p109
sVsecure
p110
I00
sVvalue
p111
VOVDYFIFBXBFTLIVSKMBHVF4H4VJAXMHZ4P24FZEN6L5DKU37N5MER7LTJY5E3TNH2VCWBZMC7HPTMXYLSDF6KV4FKU
p112
sVexpiry
p113
I1924905600
sVpath
p114
g9
sVhttpOnly
p115
I00
sVname
p116
V3AB9D23F7A4B3C9B
p117
sa(dp118
Vdomain
p119
V.jd.com
p120
sVsecure
p121
I00
sVvalue
p122
V15173976047891584018956
p123
sVexpiry
p124
F1532949618.790031
sVpath
p125
g9
sVhttpOnly
p126
I00
sVname
p127
V__jdu
p128
sa.